; Function Attrs: mustprogress nofree nounwind willreturn memory(read, inaccessiblemem: none) uwtable
define internal noundef ptr @"_ZNK5eastl14ref_count_sp_tIDnNS_9allocatorEZL15Test_shared_ptrvE3$_0E11get_deleterERKSt9type_info"(ptr noundef nonnull readnone align 8 dereferenceable(26) %this, ptr nocapture noundef nonnull readonly align 8 dereferenceable(16) %type) unnamed_addr #10 align 2 {
entry:
  %__name.i = getelementptr inbounds i8, ptr %type, i64 8
  %0 = load ptr, ptr %__name.i, align 8
  %cmp.i = icmp eq ptr %0, @"_ZTSZL15Test_shared_ptrvE3$_0"
  br i1 %cmp.i, label %_ZNKSt9type_infoeqERKS_.exit.thread, label %if.end.i

_ZNKSt9type_infoeqERKS_.exit.thread:              ; preds = %entry
  %mDeleter2 = getelementptr inbounds i8, ptr %this, i64 24
  br label %_ZNKSt9type_infoeqERKS_.exit.thread5

if.end.i:                                         ; preds = %entry
  %1 = load i8, ptr %0, align 1
  %cmp4.not.i = icmp eq i8 %1, 42
  br i1 %cmp4.not.i, label %_ZNKSt9type_infoeqERKS_.exit.thread5, label %_ZNKSt9type_infoeqERKS_.exit

_ZNKSt9type_infoeqERKS_.exit:                     ; preds = %if.end.i
  %call6.i = tail call i32 @strcmp(ptr noundef nonnull dereferenceable(1) %0, ptr noundef nonnull dereferenceable(26) @"_ZTSZL15Test_shared_ptrvE3$_0") #15
  %call6.i.fr = freeze i32 %call6.i
  %cmp7.i = icmp eq i32 %call6.i.fr, 0
  %mDeleter = getelementptr inbounds i8, ptr %this, i64 24
  %spec.select = select i1 %cmp7.i, ptr %mDeleter, ptr null
  br label %_ZNKSt9type_infoeqERKS_.exit.thread5

_ZNKSt9type_infoeqERKS_.exit.thread5:             ; preds = %_ZNKSt9type_infoeqERKS_.exit, %if.end.i, %_ZNKSt9type_infoeqERKS_.exit.thread
  %2 = phi ptr [ %mDeleter2, %_ZNKSt9type_infoeqERKS_.exit.thread ], [ null, %if.end.i ], [ %spec.select, %_ZNKSt9type_infoeqERKS_.exit ]
  ret ptr %2
}